target datalayout = "e-m:e-p270:32:32-p271:32:32-p272:64:64-i64:64-i128:128-f80:128-n8:16:32:64-S128"
target triple = "x86_64-unknown-linux-gnu"

%struct.Visitor = type { ptr, ptr, ptr, ptr, ptr, ptr, ptr, ptr, ptr, ptr, ptr, ptr, ptr, ptr, ptr, ptr, ptr, ptr, ptr, ptr, i32, %struct.CompatPolicy, ptr, ptr }
%struct.CompatPolicy = type { i8, i32, i8, i32, i8, i32, i8, i32 }
%struct.timeval = type { i64, i64 }

@.str.1 = private unnamed_addr constant [31 x i8] c"../qemu/qapi/qapi-visit-core.c\00", align 1
@.str.4 = private unnamed_addr constant [12 x i8] c"ok != !*obj\00", align 1
@.str.10 = private unnamed_addr constant [4 x i8] c"obj\00", align 1
@__PRETTY_FUNCTION__.visit_type_any = private unnamed_addr constant [68 x i8] c"_Bool visit_type_any(Visitor *, const char *, QObject **, Error **)\00", align 1
@.str.17 = private unnamed_addr constant [34 x i8] c"v->type != VISITOR_OUTPUT || *obj\00", align 1
@trace_events_enabled_count = external global i32, align 4
@message_with_timestamp = external global i8, align 1
@qemu_loglevel = external global i32, align 4
@_TRACE_VISIT_TYPE_ANY_DSTATE = external global i16, align 2
@.str.78 = private unnamed_addr constant [49 x i8] c"%d@%zu.%06zu:visit_type_any v=%p name=%s obj=%p\0A\00", align 1
@.str.79 = private unnamed_addr constant [36 x i8] c"visit_type_any v=%p name=%s obj=%p\0A\00", align 1

; Function Attrs: nounwind sspstrong uwtable
define internal zeroext i1 @qemu_loglevel_mask(i32 noundef %mask) #0 {
entry:
  %mask.addr = alloca i32, align 4
  store i32 %mask, ptr %mask.addr, align 4
  %0 = load i32, ptr @qemu_loglevel, align 4
  %1 = load i32, ptr %mask.addr, align 4
  %and = and i32 %0, %1
  %cmp = icmp ne i32 %and, 0
  ret i1 %cmp
}

; Function Attrs: nounwind sspstrong uwtable
define internal void @_nocheck__trace_visit_type_any(ptr noundef %v, ptr noundef %name, ptr noundef %obj) #0 {
entry:
  %v.addr = alloca ptr, align 8
  %name.addr = alloca ptr, align 8
  %obj.addr = alloca ptr, align 8
  %_now = alloca %struct.timeval, align 8
  store ptr %v, ptr %v.addr, align 8
  store ptr %name, ptr %name.addr, align 8
  store ptr %obj, ptr %obj.addr, align 8
  %0 = load i32, ptr @trace_events_enabled_count, align 4
  %tobool = icmp ne i32 %0, 0
  %lnot = xor i1 %tobool, true
  %lnot1 = xor i1 %lnot, true
  %lnot.ext = zext i1 %lnot1 to i32
  %conv = sext i32 %lnot.ext to i64
  %tobool2 = icmp ne i64 %conv, 0
  br i1 %tobool2, label %land.lhs.true, label %if.end11

land.lhs.true:                                    ; preds = %entry
  %1 = load i16, ptr @_TRACE_VISIT_TYPE_ANY_DSTATE, align 2
  %conv3 = zext i16 %1 to i32
  %tobool4 = icmp ne i32 %conv3, 0
  br i1 %tobool4, label %land.lhs.true5, label %if.end11

land.lhs.true5:                                   ; preds = %land.lhs.true
  %call = call zeroext i1 @qemu_loglevel_mask(i32 noundef 32768)
  br i1 %call, label %if.then, label %if.end11

if.then:                                          ; preds = %land.lhs.true5
  %2 = load i8, ptr @message_with_timestamp, align 1
  %tobool7 = trunc i8 %2 to i1
  br i1 %tobool7, label %if.then8, label %if.else

if.then8:                                         ; preds = %if.then
  %call9 = call i32 @gettimeofday(ptr noundef %_now, ptr noundef null) #6
  %call10 = call i32 @qemu_get_thread_id()
  %tv_sec = getelementptr inbounds %struct.timeval, ptr %_now, i32 0, i32 0
  %3 = load i64, ptr %tv_sec, align 8
  %tv_usec = getelementptr inbounds %struct.timeval, ptr %_now, i32 0, i32 1
  %4 = load i64, ptr %tv_usec, align 8
  %5 = load ptr, ptr %v.addr, align 8
  %6 = load ptr, ptr %name.addr, align 8
  %7 = load ptr, ptr %obj.addr, align 8
  call void (ptr, ...) @qemu_log(ptr noundef @.str.78, i32 noundef %call10, i64 noundef %3, i64 noundef %4, ptr noundef %5, ptr noundef %6, ptr noundef %7)
  br label %if.end

if.else:                                          ; preds = %if.then
  %8 = load ptr, ptr %v.addr, align 8
  %9 = load ptr, ptr %name.addr, align 8
  %10 = load ptr, ptr %obj.addr, align 8
  call void (ptr, ...) @qemu_log(ptr noundef @.str.79, ptr noundef %8, ptr noundef %9, ptr noundef %10)
  br label %if.end

if.end:                                           ; preds = %if.else, %if.then8
  br label %if.end11

if.end11:                                         ; preds = %if.end, %land.lhs.true5, %land.lhs.true, %entry
  ret void
}

; Function Attrs: nounwind sspstrong uwtable
define internal void @trace_visit_type_any(ptr noundef %v, ptr noundef %name, ptr noundef %obj) #0 {
entry:
  %v.addr = alloca ptr, align 8
  %name.addr = alloca ptr, align 8
  %obj.addr = alloca ptr, align 8
  store ptr %v, ptr %v.addr, align 8
  store ptr %name, ptr %name.addr, align 8
  store ptr %obj, ptr %obj.addr, align 8
  %0 = load ptr, ptr %v.addr, align 8
  %1 = load ptr, ptr %name.addr, align 8
  %2 = load ptr, ptr %obj.addr, align 8
  call void @_nocheck__trace_visit_type_any(ptr noundef %0, ptr noundef %1, ptr noundef %2)
  ret void
}

; Function Attrs: nounwind sspstrong uwtable
define dso_local zeroext i1 @visit_type_any(ptr noundef %v, ptr noundef %name, ptr noundef %obj, ptr noundef %errp) #0 {
entry:
  %v.addr = alloca ptr, align 8
  %name.addr = alloca ptr, align 8
  %obj.addr = alloca ptr, align 8
  %errp.addr = alloca ptr, align 8
  %ok = alloca i8, align 1
  store ptr %v, ptr %v.addr, align 8
  store ptr %name, ptr %name.addr, align 8
  store ptr %obj, ptr %obj.addr, align 8
  store ptr %errp, ptr %errp.addr, align 8
  %0 = load ptr, ptr %obj.addr, align 8
  %tobool = icmp ne ptr %0, null
  br i1 %tobool, label %if.then, label %if.else

if.then:                                          ; preds = %entry
  br label %if.end

if.else:                                          ; preds = %entry
  call void @__assert_fail(ptr noundef @.str.10, ptr noundef @.str.1, i32 noundef 368, ptr noundef @__PRETTY_FUNCTION__.visit_type_any) #5
  unreachable

if.end:                                           ; preds = %if.then
  %1 = load ptr, ptr %v.addr, align 8
  %type = getelementptr inbounds %struct.Visitor, ptr %1, i32 0, i32 20
  %2 = load i32, ptr %type, align 8
  %cmp = icmp ne i32 %2, 2
  br i1 %cmp, label %if.then2, label %lor.lhs.false

lor.lhs.false:                                    ; preds = %if.end
  %3 = load ptr, ptr %obj.addr, align 8
  %4 = load ptr, ptr %3, align 8
  %tobool1 = icmp ne ptr %4, null
  br i1 %tobool1, label %if.then2, label %if.else3

if.then2:                                         ; preds = %lor.lhs.false, %if.end
  br label %if.end4

if.else3:                                         ; preds = %lor.lhs.false
  call void @__assert_fail(ptr noundef @.str.17, ptr noundef @.str.1, i32 noundef 369, ptr noundef @__PRETTY_FUNCTION__.visit_type_any) #5
  unreachable

if.end4:                                          ; preds = %if.then2
  %5 = load ptr, ptr %v.addr, align 8
  %6 = load ptr, ptr %name.addr, align 8
  %7 = load ptr, ptr %obj.addr, align 8
  call void @trace_visit_type_any(ptr noundef %5, ptr noundef %6, ptr noundef %7)
  %8 = load ptr, ptr %v.addr, align 8
  %type_any = getelementptr inbounds %struct.Visitor, ptr %8, i32 0, i32 15
  %9 = load ptr, ptr %type_any, align 8
  %10 = load ptr, ptr %v.addr, align 8
  %11 = load ptr, ptr %name.addr, align 8
  %12 = load ptr, ptr %obj.addr, align 8
  %13 = load ptr, ptr %errp.addr, align 8
  %call = call zeroext i1 %9(ptr noundef %10, ptr noundef %11, ptr noundef %12, ptr noundef %13)
  %frombool = zext i1 %call to i8
  store i8 %frombool, ptr %ok, align 1
  %14 = load ptr, ptr %v.addr, align 8
  %type5 = getelementptr inbounds %struct.Visitor, ptr %14, i32 0, i32 20
  %15 = load i32, ptr %type5, align 8
  %cmp6 = icmp eq i32 %15, 1
  br i1 %cmp6, label %if.then7, label %if.end15

if.then7:                                         ; preds = %if.end4
  %16 = load i8, ptr %ok, align 1
  %tobool8 = trunc i8 %16 to i1
  %conv = zext i1 %tobool8 to i32
  %17 = load ptr, ptr %obj.addr, align 8
  %18 = load ptr, ptr %17, align 8
  %tobool9 = icmp ne ptr %18, null
  %lnot = xor i1 %tobool9, true
  %lnot.ext = zext i1 %lnot to i32
  %cmp10 = icmp ne i32 %conv, %lnot.ext
  br i1 %cmp10, label %if.then12, label %if.else13

if.then12:                                        ; preds = %if.then7
  br label %if.end14

if.else13:                                        ; preds = %if.then7
  call void @__assert_fail(ptr noundef @.str.4, ptr noundef @.str.1, i32 noundef 373, ptr noundef @__PRETTY_FUNCTION__.visit_type_any) #5
  unreachable

if.end14:                                         ; preds = %if.then12
  br label %if.end15

if.end15:                                         ; preds = %if.end14, %if.end4
  %19 = load i8, ptr %ok, align 1
  %tobool16 = trunc i8 %19 to i1
  ret i1 %tobool16
}